(lp1
(dp2
Vcontributors
p3
NsVtruncated
p4
I00
sVtext
p5
VRelease: Twitter Ads API SDK for Ruby v0.2.1 has been released, you can read more about it here: https://t.co/5B3kw7AKQu
p6
sVis_quote_status
p7
I00
sVin_reply_to_status_id
p8
NsVid
p9
I643847747771211776
sVfavorite_count
p10
I55
sVsource
p11
V<a href="https://about.twitter.com/products/tweetdeck" rel="nofollow">TweetDeck</a>
p12
sVretweeted
p13
I00
sVcoordinates
p14
NsVentities
p15
(dp16
Vsymbols
p17
(lp18
sVuser_mentions
p19
(lp20
sVhashtags
p21
(lp22
sVurls
p23
(lp24
(dp25
Vurl
p26
Vhttps://t.co/5B3kw7AKQu
p27
sVindices
p28
(lp29
I97
aI120
asVexpanded_url
p30
Vhttps://twittercommunity.com/t/release-twitter-ads-api-sdk-for-ruby-v0-2-1/52200?u=jaakkosf
p31
sVdisplay_url
p32
Vtwittercommunity.com/t/release-twit\u2026
p33
sassVin_reply_to_screen_name
p34
NsVid_str
p35
V643847747771211776
p36
sVretweet_count
p37
I29
sVin_reply_to_user_id
p38
NsVfavorited
p39
I00
sVuser
p40
(dp41
Vfollow_request_sent
p42
I00
sVhas_extended_profile
p43
I00
sVprofile_use_background_image
p44
I00
sVdefault_profile_image
p45
I00
sVid
p46
I1225933934
sVprofile_background_image_url_https
p47
Vhttps://abs.twimg.com/images/themes/theme14/bg.gif
p48
sVverified
p49
I01
sVprofile_text_color
p50
V000000
p51
sVprofile_image_url_https
p52
Vhttps://pbs.twimg.com/profile_images/605808184918278144/pxItPKY7_normal.png
p53
sVprofile_sidebar_fill_color
p54
V000000
p55
sVentities
p56
(dp57
Vurl
p58
(dp59
Vurls
p60
(lp61
(dp62
Vurl
p63
Vhttp://t.co/OyVljenwFS
p64
sVindices
p65
(lp66
I0
aI22
asVexpanded_url
p67
Vhttp://dev.twitter.com/ads
p68
sVdisplay_url
p69
Vdev.twitter.com/ads
p70
sassVdescription
p71
(dp72
Vurls
p73
(lp74
sssVfollowers_count
p75
I5059
sVprofile_sidebar_border_color
p76
V000000
p77
sVid_str
p78
V1225933934
p79
sVprofile_background_color
p80
V000000
p81
sVlisted_count
p82
I38
sVis_translation_enabled
p83
I01
sVutc_offset
p84
I-28800
sVstatuses_count
p85
I358
sVdescription
p86
VThe Twitter Ads API. Tweets about API changes, service issues and enhancements to Twitter promoted products.
p87
sVfriends_count
p88
I51
sVlocation
p89
VSan Francisco
p90
sVprofile_link_color
p91
VABB8C2
p92
sVprofile_image_url
p93
Vhttp://pbs.twimg.com/profile_images/605808184918278144/pxItPKY7_normal.png
p94
sVfollowing
p95
I00
sVgeo_enabled
p96
I01
sVprofile_background_image_url
p97
Vhttp://abs.twimg.com/images/themes/theme14/bg.gif
p98
sVscreen_name
p99
VAdsAPI
p100
sVlang
p101
Ven
p102
sVprofile_background_tile
p103
I00
sVfavourites_count
p104
I263
sVname
p105
VAds API
p106
sVnotifications
p107
I00
sVurl
p108
Vhttp://t.co/OyVljenwFS
p109
sVcreated_at
p110
VWed Feb 27 20:01:12 +0000 2013
p111
sVcontributors_enabled
p112
I00
sVtime_zone
p113
VPacific Time (US & Canada)
p114
sVprotected
p115
I00
sVdefault_profile
p116
I00
sVis_translator
p117
I00
ssVgeo
p118
NsVin_reply_to_user_id_str
p119
NsVpossibly_sensitive
p120
I00
sVlang
p121
Ven
p122
sVcreated_at
p123
VTue Sep 15 18:03:59 +0000 2015
p124
sVin_reply_to_status_id_str
p125
NsVplace
p126
Nsa(dp127
Vcontributors
p128
NsVtruncated
p129
I00
sVtext
p130
VWe are working to resolve some 4xx and 5xx API issues.
p131
sVis_quote_status
p132
I00
sVin_reply_to_status_id
p133
NsVid
p134
I655116638522466304
sVfavorite_count
p135
I57
sVsource
p136
V<a href="https://about.twitter.com/products/tweetdeck" rel="nofollow">TweetDeck</a>
p137
sVretweeted
p138
I00
sVcoordinates
p139
NsVentities
p140
(dp141
Vsymbols
p142
(lp143
sVuser_mentions
p144
(lp145
sVhashtags
p146
(lp147
sVurls
p148
(lp149
ssVin_reply_to_screen_name
p150
NsVid_str
p151
V655116638522466304
p152
sVretweet_count
p153
I66
sVin_reply_to_user_id
p154
NsVfavorited
p155
I00
sVuser
p156
(dp157
Vfollow_request_sent
p158
I00
sVhas_extended_profile
p159
I00
sVprofile_use_background_image
p160
I01
sVdefault_profile_image
p161
I00
sVid
p162
I6253282
sVprofile_background_image_url_https
p163
Vhttps://pbs.twimg.com/profile_background_images/656927849/miyt9dpjz77sc0w3d4vj.png
p164
sVverified
p165
I01
sVprofile_text_color
p166
V333333
p167
sVprofile_image_url_https
p168
Vhttps://pbs.twimg.com/profile_images/2284174872/7df3h38zabcvjylnyfe3_normal.png
p169
sVprofile_sidebar_fill_color
p170
VDDEEF6
p171
sVentities
p172
(dp173
Vurl
p174
(dp175
Vurls
p176
(lp177
(dp178
Vurl
p179
Vhttp://t.co/78pYTvWfJd
p180
sVindices
p181
(lp182
I0
aI22
asVexpanded_url
p183
Vhttp://dev.twitter.com
p184
sVdisplay_url
p185
Vdev.twitter.com
p186
sassVdescription
p187
(dp188
Vurls
p189
(lp190
sssVfollowers_count
p191
I4955527
sVprofile_sidebar_border_color
p192
VC0DEED
p193
sVid_str
p194
V6253282
p195
sVprofile_background_color
p196
VC0DEED
p197
sVlisted_count
p198
I12999
sVis_translation_enabled
p199
I00
sVutc_offset
p200
I-28800
sVstatuses_count
p201
I3553
sVdescription
p202
VThe Real Twitter API. I tweet about API changes, service issues and happily answer questions about Twitter and our API. Don't get an answer? It's on my website.
p203
sVfriends_count
p204
I48
sVlocation
p205
VSan Francisco, CA
p206
sVprofile_link_color
p207
V0084B4
p208
sVprofile_image_url
p209
Vhttp://pbs.twimg.com/profile_images/2284174872/7df3h38zabcvjylnyfe3_normal.png
p210
sVfollowing
p211
I00
sVgeo_enabled
p212
I01
sVprofile_banner_url
p213
Vhttps://pbs.twimg.com/profile_banners/6253282/1431474710
p214
sVprofile_background_image_url
p215
Vhttp://pbs.twimg.com/profile_background_images/656927849/miyt9dpjz77sc0w3d4vj.png
p216
sVscreen_name
p217
Vtwitterapi
p218
sVlang
p219
Ven
p220
sVprofile_background_tile
p221
I01
sVfavourites_count
p222
I27
sVname
p223
VTwitter API
p224
sVnotifications
p225
I00
sVurl
p226
Vhttp://t.co/78pYTvWfJd
p227
sVcreated_at
p228
VWed May 23 06:01:13 +0000 2007
p229
sVcontributors_enabled
p230
I00
sVtime_zone
p231
VPacific Time (US & Canada)
p232
sVprotected
p233
I00
sVdefault_profile
p234
I00
sVis_translator
p235
I00
ssVgeo
p236
NsVin_reply_to_user_id_str
p237
NsVlang
p238
Ven
p239
sVcreated_at
p240
VFri Oct 16 20:22:32 +0000 2015
p241
sVin_reply_to_status_id_str
p242
NsVplace
p243
Nsa(dp244
Vcontributors
p245
NsVtruncated
p246
I00
sVtext
p247
VHow the USGS uses Twitter data to track earthquakes https://t.co/qSiD5MgIST
p248
sVis_quote_status
p249
I00
sVin_reply_to_status_id
p250
NsVid
p251
I652300457474326528
sVfavorite_count
p252
I66
sVsource
p253
V<a href="http://twitter.com" rel="nofollow">Twitter Web Client</a>
p254
sVretweeted
p255
I00
sVcoordinates
p256
NsVentities
p257
(dp258
Vsymbols
p259
(lp260
sVuser_mentions
p261
(lp262
sVhashtags
p263
(lp264
sVurls
p265
(lp266
(dp267
Vurl
p268
Vhttps://t.co/qSiD5MgIST
p269
sVindices
p270
(lp271
I52
aI75
asVexpanded_url
p272
Vhttps://blog.twitter.com/2015/usgs-twitter-data-earthquake-detection
p273
sVdisplay_url
p274
Vblog.twitter.com/2015/usgs-twit\u2026
p275
sassVin_reply_to_screen_name
p276
NsVid_str
p277
V652300457474326528
p278
sVretweet_count
p279
I53
sVin_reply_to_user_id
p280
NsVfavorited
p281
I00
sVuser
p282
(dp283
Vfollow_request_sent
p284
I00
sVhas_extended_profile
p285
I00
sVprofile_use_background_image
p286
I01
sVdefault_profile_image
p287
I00
sVid
p288
I6253282
sVprofile_background_image_url_https
p289
Vhttps://pbs.twimg.com/profile_background_images/656927849/miyt9dpjz77sc0w3d4vj.png
p290
sVverified
p291
I01
sVprofile_text_color
p292
V333333
p293
sVprofile_image_url_https
p294
Vhttps://pbs.twimg.com/profile_images/2284174872/7df3h38zabcvjylnyfe3_normal.png
p295
sVprofile_sidebar_fill_color
p296
VDDEEF6
p297
sVentities
p298
(dp299
Vurl
p300
(dp301
Vurls
p302
(lp303
(dp304
Vurl
p305
Vhttp://t.co/78pYTvWfJd
p306
sVindices
p307
(lp308
I0
aI22
asVexpanded_url
p309
Vhttp://dev.twitter.com
p310
sVdisplay_url
p311
Vdev.twitter.com
p312
sassVdescription
p313
(dp314
Vurls
p315
(lp316
sssVfollowers_count
p317
I4955527
sVprofile_sidebar_border_color
p318
VC0DEED
p319
sVid_str
p320
V6253282
p321
sVprofile_background_color
p322
VC0DEED
p323
sVlisted_count
p324
I12999
sVis_translation_enabled
p325
I00
sVutc_offset
p326
I-28800
sVstatuses_count
p327
I3553
sVdescription
p328
VThe Real Twitter API. I tweet about API changes, service issues and happily answer questions about Twitter and our API. Don't get an answer? It's on my website.
p329
sVfriends_count
p330
I48
sVlocation
p331
VSan Francisco, CA
p332
sVprofile_link_color
p333
V0084B4
p334
sVprofile_image_url
p335
Vhttp://pbs.twimg.com/profile_images/2284174872/7df3h38zabcvjylnyfe3_normal.png
p336
sVfollowing
p337
I00
sVgeo_enabled
p338
I01
sVprofile_banner_url
p339
Vhttps://pbs.twimg.com/profile_banners/6253282/1431474710
p340
sVprofile_background_image_url
p341
Vhttp://pbs.twimg.com/profile_background_images/656927849/miyt9dpjz77sc0w3d4vj.png
p342
sVscreen_name
p343
Vtwitterapi
p344
sVlang
p345
Ven
p346
sVprofile_background_tile
p347
I01
sVfavourites_count
p348
I27
sVname
p349
VTwitter API
p350
sVnotifications
p351
I00
sVurl
p352
Vhttp://t.co/78pYTvWfJd
p353
sVcreated_at
p354
VWed May 23 06:01:13 +0000 2007
p355
sVcontributors_enabled
p356
I00
sVtime_zone
p357
VPacific Time (US & Canada)
p358
sVprotected
p359
I00
sVdefault_profile
p360
I00
sVis_translator
p361
I00
ssVgeo
p362
NsVin_reply_to_user_id_str
p363
NsVpossibly_sensitive
p364
I00
sVlang
p365
Ven
p366
sVcreated_at
p367
VFri Oct 09 01:52:02 +0000 2015
p368
sVin_reply_to_status_id_str
p369
NsVplace
p370
Nsa(dp371
Vcontributors
p372
NsVtruncated
p373
I00
sVtext
p374
VAdditional 64-bit entity ID migration coming in Feb 2016 https://t.co/eQIGvw1rsJ
p375
sVis_quote_status
p376
I00
sVin_reply_to_status_id
p377
NsVid
p378
I669077021138493440
sVfavorite_count
p379
I70
sVsource
p380
V<a href="https://about.twitter.com/products/tweetdeck" rel="nofollow">TweetDeck</a>
p381
sVretweeted
p382
I00
sVcoordinates
p383
NsVentities
p384
(dp385
Vsymbols
p386
(lp387
sVuser_mentions
p388
(lp389
sVhashtags
p390
(lp391
sVurls
p392
(lp393
(dp394
Vurl
p395
Vhttps://t.co/eQIGvw1rsJ
p396
sVindices
p397
(lp398
I57
aI80
asVexpanded_url
p399
Vhttps://twittercommunity.com/t/migration-of-twitter-core-entities-to-64-bit-ids/56881
p400
sVdisplay_url
p401
Vtwittercommunity.com/t/migration-of\u2026
p402
sassVin_reply_to_screen_name
p403
NsVid_str
p404
V669077021138493440
p405
sVretweet_count
p406
I60
sVin_reply_to_user_id
p407
NsVfavorited
p408
I00
sVuser
p409
(dp410
Vfollow_request_sent
p411
I00
sVhas_extended_profile
p412
I00
sVprofile_use_background_image
p413
I01
sVdefault_profile_image
p414
I00
sVid
p415
I6253282
sVprofile_background_image_url_https
p416
Vhttps://pbs.twimg.com/profile_background_images/656927849/miyt9dpjz77sc0w3d4vj.png
p417
sVverified
p418
I01
sVprofile_text_color
p419
V333333
p420
sVprofile_image_url_https
p421
Vhttps://pbs.twimg.com/profile_images/2284174872/7df3h38zabcvjylnyfe3_normal.png
p422
sVprofile_sidebar_fill_color
p423
VDDEEF6
p424
sVentities
p425
(dp426
Vurl
p427
(dp428
Vurls
p429
(lp430
(dp431
Vurl
p432
Vhttp://t.co/78pYTvWfJd
p433
sVindices
p434
(lp435
I0
aI22
asVexpanded_url
p436
Vhttp://dev.twitter.com
p437
sVdisplay_url
p438
Vdev.twitter.com
p439
sassVdescription
p440
(dp441
Vurls
p442
(lp443
sssVfollowers_count
p444
I4955527
sVprofile_sidebar_border_color
p445
VC0DEED
p446
sVid_str
p447
V6253282
p448
sVprofile_background_color
p449
VC0DEED
p450
sVlisted_count
p451
I12999
sVis_translation_enabled
p452
I00
sVutc_offset
p453
I-28800
sVstatuses_count
p454
I3553
sVdescription
p455
VThe Real Twitter API. I tweet about API changes, service issues and happily answer questions about Twitter and our API. Don't get an answer? It's on my website.
p456
sVfriends_count
p457
I48
sVlocation
p458
VSan Francisco, CA
p459
sVprofile_link_color
p460
V0084B4
p461
sVprofile_image_url
p462
Vhttp://pbs.twimg.com/profile_images/2284174872/7df3h38zabcvjylnyfe3_normal.png
p463
sVfollowing
p464
I00
sVgeo_enabled
p465
I01
sVprofile_banner_url
p466
Vhttps://pbs.twimg.com/profile_banners/6253282/1431474710
p467
sVprofile_background_image_url
p468
Vhttp://pbs.twimg.com/profile_background_images/656927849/miyt9dpjz77sc0w3d4vj.png
p469
sVscreen_name
p470
Vtwitterapi
p471
sVlang
p472
Ven
p473
sVprofile_background_tile
p474
I01
sVfavourites_count
p475
I27
sVname
p476
VTwitter API
p477
sVnotifications
p478
I00
sVurl
p479
Vhttp://t.co/78pYTvWfJd
p480
sVcreated_at
p481
VWed May 23 06:01:13 +0000 2007
p482
sVcontributors_enabled
p483
I00
sVtime_zone
p484
VPacific Time (US & Canada)
p485
sVprotected
p486
I00
sVdefault_profile
p487
I00
sVis_translator
p488
I00
ssVgeo
p489
NsVin_reply_to_user_id_str
p490
NsVpossibly_sensitive
p491
I00
sVlang
p492
Ven
p493
sVcreated_at
p494
VTue Nov 24 08:56:07 +0000 2015
p495
sVin_reply_to_status_id_str
p496
NsVplace
p497
Nsa(dp498
Vcontributors
p499
NsVtruncated
p500
I00
sVtext
p501
VTwitter is experiencing issues in  chunked media uploads through the API. https://t.co/4wOEgWr8Zb
p502
sVis_quote_status
p503
I00
sVin_reply_to_status_id
p504
NsVid
p505
I653729313892663296
sVfavorite_count
p506
I43
sVsource
p507
V<a href="https://about.twitter.com/products/tweetdeck" rel="nofollow">TweetDeck</a>
p508
sVretweeted
p509
I00
sVcoordinates
p510
NsVentities
p511
(dp512
Vsymbols
p513
(lp514
sVuser_mentions
p515
(lp516
sVhashtags
p517
(lp518
sVurls
p519
(lp520
(dp521
Vurl
p522
Vhttps://t.co/4wOEgWr8Zb
p523
sVindices
p524
(lp525
I74
aI97
asVexpanded_url
p526
Vhttps://twittercommunity.com/t/announcement-issue-affecting-chunked-media-uploads/54129
p527
sVdisplay_url
p528
Vtwittercommunity.com/t/announcement\u2026
p529
sassVin_reply_to_screen_name
p530
NsVid_str
p531
V653729313892663296
p532
sVretweet_count
p533
I38
sVin_reply_to_user_id
p534
NsVfavorited
p535
I00
sVuser
p536
(dp537
Vfollow_request_sent
p538
I00
sVhas_extended_profile
p539
I00
sVprofile_use_background_image
p540
I00
sVdefault_profile_image
p541
I00
sVid
p542
I1225933934
sVprofile_background_image_url_https
p543
Vhttps://abs.twimg.com/images/themes/theme14/bg.gif
p544
sVverified
p545
I01
sVprofile_text_color
p546
V000000
p547
sVprofile_image_url_https
p548
Vhttps://pbs.twimg.com/profile_images/605808184918278144/pxItPKY7_normal.png
p549
sVprofile_sidebar_fill_color
p550
V000000
p551
sVentities
p552
(dp553
Vurl
p554
(dp555
Vurls
p556
(lp557
(dp558
Vurl
p559
Vhttp://t.co/OyVljenwFS
p560
sVindices
p561
(lp562
I0
aI22
asVexpanded_url
p563
Vhttp://dev.twitter.com/ads
p564
sVdisplay_url
p565
Vdev.twitter.com/ads
p566
sassVdescription
p567
(dp568
Vurls
p569
(lp570
sssVfollowers_count
p571
I5059
sVprofile_sidebar_border_color
p572
V000000
p573
sVid_str
p574
V1225933934
p575
sVprofile_background_color
p576
V000000
p577
sVlisted_count
p578
I38
sVis_translation_enabled
p579
I01
sVutc_offset
p580
I-28800
sVstatuses_count
p581
I358
sVdescription
p582
VThe Twitter Ads API. Tweets about API changes, service issues and enhancements to Twitter promoted products.
p583
sVfriends_count
p584
I51
sVlocation
p585
VSan Francisco
p586
sVprofile_link_color
p587
VABB8C2
p588
sVprofile_image_url
p589
Vhttp://pbs.twimg.com/profile_images/605808184918278144/pxItPKY7_normal.png
p590
sVfollowing
p591
I00
sVgeo_enabled
p592
I01
sVprofile_background_image_url
p593
Vhttp://abs.twimg.com/images/themes/theme14/bg.gif
p594
sVscreen_name
p595
VAdsAPI
p596
sVlang
p597
Ven
p598
sVprofile_background_tile
p599
I00
sVfavourites_count
p600
I263
sVname
p601
VAds API
p602
sVnotifications
p603
I00
sVurl
p604
Vhttp://t.co/OyVljenwFS
p605
sVcreated_at
p606
VWed Feb 27 20:01:12 +0000 2013
p607
sVcontributors_enabled
p608
I00
sVtime_zone
p609
VPacific Time (US & Canada)
p610
sVprotected
p611
I00
sVdefault_profile
p612
I00
sVis_translator
p613
I00
ssVgeo
p614
NsVin_reply_to_user_id_str
p615
NsVpossibly_sensitive
p616
I00
sVlang
p617
Ven
p618
sVcreated_at
p619
VTue Oct 13 00:29:48 +0000 2015
p620
sVin_reply_to_status_id_str
p621
NsVplace
p622
Nsa(dp623
Vcontributors
p624
NsVtruncated
p625
I00
sVtext
p626
VThe streaming endpoints are returning to normal.
p627
sVis_quote_status
p628
I00
sVin_reply_to_status_id
p629
NsVid
p630
I655139342613004288
sVfavorite_count
p631
I76
sVsource
p632
V<a href="https://about.twitter.com/products/tweetdeck" rel="nofollow">TweetDeck</a>
p633
sVretweeted
p634
I00
sVcoordinates
p635
NsVentities
p636
(dp637
Vsymbols
p638
(lp639
sVuser_mentions
p640
(lp641
sVhashtags
p642
(lp643
sVurls
p644
(lp645
ssVin_reply_to_screen_name
p646
NsVid_str
p647
V655139342613004288
p648
sVretweet_count
p649
I62
sVin_reply_to_user_id
p650
NsVfavorited
p651
I00
sVuser
p652
(dp653
Vfollow_request_sent
p654
I00
sVhas_extended_profile
p655
I00
sVprofile_use_background_image
p656
I01
sVdefault_profile_image
p657
I00
sVid
p658
I6253282
sVprofile_background_image_url_https
p659
Vhttps://pbs.twimg.com/profile_background_images/656927849/miyt9dpjz77sc0w3d4vj.png
p660
sVverified
p661
I01
sVprofile_text_color
p662
V333333
p663
sVprofile_image_url_https
p664
Vhttps://pbs.twimg.com/profile_images/2284174872/7df3h38zabcvjylnyfe3_normal.png
p665
sVprofile_sidebar_fill_color
p666
VDDEEF6
p667
sVentities
p668
(dp669
Vurl
p670
(dp671
Vurls
p672
(lp673
(dp674
Vurl
p675
Vhttp://t.co/78pYTvWfJd
p676
sVindices
p677
(lp678
I0
aI22
asVexpanded_url
p679
Vhttp://dev.twitter.com
p680
sVdisplay_url
p681
Vdev.twitter.com
p682
sassVdescription
p683
(dp684
Vurls
p685
(lp686
sssVfollowers_count
p687
I4955527
sVprofile_sidebar_border_color
p688
VC0DEED
p689
sVid_str
p690
V6253282
p691
sVprofile_background_color
p692
VC0DEED
p693
sVlisted_count
p694
I12999
sVis_translation_enabled
p695
I00
sVutc_offset
p696
I-28800
sVstatuses_count
p697
I3553
sVdescription
p698
VThe Real Twitter API. I tweet about API changes, service issues and happily answer questions about Twitter and our API. Don't get an answer? It's on my website.
p699
sVfriends_count
p700
I48
sVlocation
p701
VSan Francisco, CA
p702
sVprofile_link_color
p703
V0084B4
p704
sVprofile_image_url
p705
Vhttp://pbs.twimg.com/profile_images/2284174872/7df3h38zabcvjylnyfe3_normal.png
p706
sVfollowing
p707
I00
sVgeo_enabled
p708
I01
sVprofile_banner_url
p709
Vhttps://pbs.twimg.com/profile_banners/6253282/1431474710
p710
sVprofile_background_image_url
p711
Vhttp://pbs.twimg.com/profile_background_images/656927849/miyt9dpjz77sc0w3d4vj.png
p712
sVscreen_name
p713
Vtwitterapi
p714
sVlang
p715
Ven
p716
sVprofile_background_tile
p717
I01
sVfavourites_count
p718
I27
sVname
p719
VTwitter API
p720
sVnotifications
p721
I00
sVurl
p722
Vhttp://t.co/78pYTvWfJd
p723
sVcreated_at
p724
VWed May 23 06:01:13 +0000 2007
p725
sVcontributors_enabled
p726
I00
sVtime_zone
p727
VPacific Time (US & Canada)
p728
sVprotected
p729
I00
sVdefault_profile
p730
I00
sVis_translator
p731
I00
ssVgeo
p732
NsVin_reply_to_user_id_str
p733
NsVlang
p734
Ven
p735
sVcreated_at
p736
VFri Oct 16 21:52:45 +0000 2015
p737
sVin_reply_to_status_id_str
p738
NsVplace
p739
Nsa(dp740
Vcontributors
p741
NsVtruncated
p742
I00
sVtext
p743
VThe Streaming API endpoints are returning to normal after the earlier connection issues.
p744
sVis_quote_status
p745
I00
sVin_reply_to_status_id
p746
NsVid
p747
I654776995541192705
sVfavorite_count
p748
I58
sVsource
p749
V<a href="http://itunes.apple.com/us/app/twitter/id409789998?mt=12" rel="nofollow">Twitter for Mac</a>
p750
sVretweeted
p751
I00
sVcoordinates
p752
NsVentities
p753
(dp754
Vsymbols
p755
(lp756
sVuser_mentions
p757
(lp758
sVhashtags
p759
(lp760
sVurls
p761
(lp762
ssVin_reply_to_screen_name
p763
NsVid_str
p764
V654776995541192705
p765
sVretweet_count
p766
I29
sVin_reply_to_user_id
p767
NsVfavorited
p768
I00
sVuser
p769
(dp770
Vfollow_request_sent
p771
I00
sVhas_extended_profile
p772
I00
sVprofile_use_background_image
p773
I01
sVdefault_profile_image
p774
I00
sVid
p775
I6253282
sVprofile_background_image_url_https
p776
Vhttps://pbs.twimg.com/profile_background_images/656927849/miyt9dpjz77sc0w3d4vj.png
p777
sVverified
p778
I01
sVprofile_text_color
p779
V333333
p780
sVprofile_image_url_https
p781
Vhttps://pbs.twimg.com/profile_images/2284174872/7df3h38zabcvjylnyfe3_normal.png
p782
sVprofile_sidebar_fill_color
p783
VDDEEF6
p784
sVentities
p785
(dp786
Vurl
p787
(dp788
Vurls
p789
(lp790
(dp791
Vurl
p792
Vhttp://t.co/78pYTvWfJd
p793
sVindices
p794
(lp795
I0
aI22
asVexpanded_url
p796
Vhttp://dev.twitter.com
p797
sVdisplay_url
p798
Vdev.twitter.com
p799
sassVdescription
p800
(dp801
Vurls
p802
(lp803
sssVfollowers_count
p804
I4955527
sVprofile_sidebar_border_color
p805
VC0DEED
p806
sVid_str
p807
V6253282
p808
sVprofile_background_color
p809
VC0DEED
p810
sVlisted_count
p811
I12999
sVis_translation_enabled
p812
I00
sVutc_offset
p813
I-28800
sVstatuses_count
p814
I3553
sVdescription
p815
VThe Real Twitter API. I tweet about API changes, service issues and happily answer questions about Twitter and our API. Don't get an answer? It's on my website.
p816
sVfriends_count
p817
I48
sVlocation
p818
VSan Francisco, CA
p819
sVprofile_link_color
p820
V0084B4
p821
sVprofile_image_url
p822
Vhttp://pbs.twimg.com/profile_images/2284174872/7df3h38zabcvjylnyfe3_normal.png
p823
sVfollowing
p824
I00
sVgeo_enabled
p825
I01
sVprofile_banner_url
p826
Vhttps://pbs.twimg.com/profile_banners/6253282/1431474710
p827
sVprofile_background_image_url
p828
Vhttp://pbs.twimg.com/profile_background_images/656927849/miyt9dpjz77sc0w3d4vj.png
p829
sVscreen_name
p830
Vtwitterapi
p831
sVlang
p832
Ven
p833
sVprofile_background_tile
p834
I01
sVfavourites_count
p835
I27
sVname
p836
VTwitter API
p837
sVnotifications
p838
I00
sVurl
p839
Vhttp://t.co/78pYTvWfJd
p840
sVcreated_at
p841
VWed May 23 06:01:13 +0000 2007
p842
sVcontributors_enabled
p843
I00
sVtime_zone
p844
VPacific Time (US & Canada)
p845
sVprotected
p846
I00
sVdefault_profile
p847
I00
sVis_translator
p848
I00
ssVgeo
p849
NsVin_reply_to_user_id_str
p850
NsVlang
p851
Ven
p852
sVcreated_at
p853
VThu Oct 15 21:52:55 +0000 2015
p854
sVin_reply_to_status_id_str
p855
NsVplace
p856
Nsa(dp857
Vcontributors
p858
NsVtruncated
p859
I00
sVtext
p860
VAnnouncement: moving http://t.co/EdkFYYfddt to HTTPS only for new links, from October 1 https://t.co/dkgaQ23Klw
p861
sVis_quote_status
p862
I00
sVin_reply_to_status_id
p863
NsVid
p864
I646007768269328384
sVfavorite_count
p865
I83
sVsource
p866
V<a href="http://itunes.apple.com/us/app/twitter/id409789998?mt=12" rel="nofollow">Twitter for Mac</a>
p867
sVretweeted
p868
I00
sVcoordinates
p869
NsVentities
p870
(dp871
Vsymbols
p872
(lp873
sVuser_mentions
p874
(lp875
sVhashtags
p876
(lp877
sVurls
p878
(lp879
(dp880
Vurl
p881
Vhttp://t.co/EdkFYYfddt
p882
sVindices
p883
(lp884
I21
aI43
asVexpanded_url
p885
Vhttp://t.co
p886
sVdisplay_url
p887
Vt.co
p888
sa(dp889
Vurl
p890
Vhttps://t.co/dkgaQ23Klw
p891
sVindices
p892
(lp893
I88
aI111
asVexpanded_url
p894
Vhttps://twittercommunity.com/t/moving-t-co-to-https-only-for-new-links/52380
p895
sVdisplay_url
p896
Vtwittercommunity.com/t/moving-t-co-\u2026
p897
sassVin_reply_to_screen_name
p898
NsVid_str
p899
V646007768269328384
p900
sVretweet_count
p901
I110
sVin_reply_to_user_id
p902
NsVfavorited
p903
I00
sVuser
p904
(dp905
Vfollow_request_sent
p906
I00
sVhas_extended_profile
p907
I00
sVprofile_use_background_image
p908
I01
sVdefault_profile_image
p909
I00
sVid
p910
I6253282
sVprofile_background_image_url_https
p911
Vhttps://pbs.twimg.com/profile_background_images/656927849/miyt9dpjz77sc0w3d4vj.png
p912
sVverified
p913
I01
sVprofile_text_color
p914
V333333
p915
sVprofile_image_url_https
p916
Vhttps://pbs.twimg.com/profile_images/2284174872/7df3h38zabcvjylnyfe3_normal.png
p917
sVprofile_sidebar_fill_color
p918
VDDEEF6
p919
sVentities
p920
(dp921
Vurl
p922
(dp923
Vurls
p924
(lp925
(dp926
Vurl
p927
Vhttp://t.co/78pYTvWfJd
p928
sVindices
p929
(lp930
I0
aI22
asVexpanded_url
p931
Vhttp://dev.twitter.com
p932
sVdisplay_url
p933
Vdev.twitter.com
p934
sassVdescription
p935
(dp936
Vurls
p937
(lp938
sssVfollowers_count
p939
I4955527
sVprofile_sidebar_border_color
p940
VC0DEED
p941
sVid_str
p942
V6253282
p943
sVprofile_background_color
p944
VC0DEED
p945
sVlisted_count
p946
I12999
sVis_translation_enabled
p947
I00
sVutc_offset
p948
I-28800
sVstatuses_count
p949
I3553
sVdescription
p950
VThe Real Twitter API. I tweet about API changes, service issues and happily answer questions about Twitter and our API. Don't get an answer? It's on my website.
p951
sVfriends_count
p952
I48
sVlocation
p953
VSan Francisco, CA
p954
sVprofile_link_color
p955
V0084B4
p956
sVprofile_image_url
p957
Vhttp://pbs.twimg.com/profile_images/2284174872/7df3h38zabcvjylnyfe3_normal.png
p958
sVfollowing
p959
I00
sVgeo_enabled
p960
I01
sVprofile_banner_url
p961
Vhttps://pbs.twimg.com/profile_banners/6253282/1431474710
p962
sVprofile_background_image_url
p963
Vhttp://pbs.twimg.com/profile_background_images/656927849/miyt9dpjz77sc0w3d4vj.png
p964
sVscreen_name
p965
Vtwitterapi
p966
sVlang
p967
Ven
p968
sVprofile_background_tile
p969
I01
sVfavourites_count
p970
I27
sVname
p971
VTwitter API
p972
sVnotifications
p973
I00
sVurl
p974
Vhttp://t.co/78pYTvWfJd
p975
sVcreated_at
p976
VWed May 23 06:01:13 +0000 2007
p977
sVcontributors_enabled
p978
I00
sVtime_zone
p979
VPacific Time (US & Canada)
p980
sVprotected
p981
I00
sVdefault_profile
p982
I00
sVis_translator
p983
I00
ssVgeo
p984
NsVin_reply_to_user_id_str
p985
NsVpossibly_sensitive
p986
I00
sVlang
p987
Ven
p988
sVcreated_at
p989
VMon Sep 21 17:07:08 +0000 2015
p990
sVin_reply_to_status_id_str
p991
NsVplace
p992
Nsa(dp993
Vcontributors
p994
NsVtruncated
p995
I00
sVtext
p996
VHearts are here! The REST and Streaming API paths and properties remain unchanged.\u000ahttps://t.co/R6AjSSKysq
p997
sVis_quote_status
p998
I00
sVin_reply_to_status_id
p999
NsVid
p1000
I661565123492884480
sVfavorite_count
p1001
I152
sVsource
p1002
V<a href="http://twitter.com" rel="nofollow">Twitter Web Client</a>
p1003
sVretweeted
p1004
I00
sVcoordinates
p1005
NsVentities
p1006
(dp1007
Vsymbols
p1008
(lp1009
sVuser_mentions
p1010
(lp1011
sVhashtags
p1012
(lp1013
sVurls
p1014
(lp1015
(dp1016
Vurl
p1017
Vhttps://t.co/R6AjSSKysq
p1018
sVindices
p1019
(lp1020
I83
aI106
asVexpanded_url
p1021
Vhttps://blog.twitter.com/2015/hearts-for-developers
p1022
sVdisplay_url
p1023
Vblog.twitter.com/2015/hearts-fo\u2026
p1024
sassVin_reply_to_screen_name
p1025
NsVid_str
p1026
V661565123492884480
p1027
sVretweet_count
p1028
I183
sVin_reply_to_user_id
p1029
NsVfavorited
p1030
I00
sVuser
p1031
(dp1032
Vfollow_request_sent
p1033
I00
sVhas_extended_profile
p1034
I00
sVprofile_use_background_image
p1035
I00
sVdefault_profile_image
p1036
I00
sVid
p1037
I2244994945
sVprofile_background_image_url_https
p1038
Vhttps://abs.twimg.com/images/themes/theme1/bg.png
p1039
sVverified
p1040
I01
sVprofile_text_color
p1041
V333333
p1042
sVprofile_image_url_https
p1043
Vhttps://pbs.twimg.com/profile_images/530814764687949824/npQQVkq8_normal.png
p1044
sVprofile_sidebar_fill_color
p1045
VDDEEF6
p1046
sVentities
p1047
(dp1048
Vurl
p1049
(dp1050
Vurls
p1051
(lp1052
(dp1053
Vurl
p1054
Vhttps://t.co/66w26cua1O
p1055
sVindices
p1056
(lp1057
I0
aI23
asVexpanded_url
p1058
Vhttps://dev.twitter.com/
p1059
sVdisplay_url
p1060
Vdev.twitter.com
p1061
sassVdescription
p1062
(dp1063
Vurls
p1064
(lp1065
sssVfollowers_count
p1066
I295011
sVprofile_sidebar_border_color
p1067
VFFFFFF
p1068
sVid_str
p1069
V2244994945
p1070
sVprofile_background_color
p1071
VFFFFFF
p1072
sVlisted_count
p1073
I698
sVis_translation_enabled
p1074
I00
sVutc_offset
p1075
I-28800
sVstatuses_count
p1076
I1613
sVdescription
p1077
VDeveloper and Platform Relations @Twitter. We are developer advocates. We can't answer all your questions, but we listen to all of them!
p1078
sVfriends_count
p1079
I1495
sVlocation
p1080
VInternet
p1081
sVprofile_link_color
p1082
V0084B4
p1083
sVprofile_image_url
p1084
Vhttp://pbs.twimg.com/profile_images/530814764687949824/npQQVkq8_normal.png
p1085
sVfollowing
p1086
I00
sVgeo_enabled
p1087
I01
sVprofile_banner_url
p1088
Vhttps://pbs.twimg.com/profile_banners/2244994945/1396995246
p1089
sVprofile_background_image_url
p1090
Vhttp://abs.twimg.com/images/themes/theme1/bg.png
p1091
sVscreen_name
p1092
VTwitterDev
p1093
sVlang
p1094
Ven
p1095
sVprofile_background_tile
p1096
I00
sVfavourites_count
p1097
I863
sVname
p1098
VTwitterDev
p1099
sVnotifications
p1100
I00
sVurl
p1101
Vhttps://t.co/66w26cua1O
p1102
sVcreated_at
p1103
VSat Dec 14 04:35:55 +0000 2013
p1104
sVcontributors_enabled
p1105
I00
sVtime_zone
p1106
VPacific Time (US & Canada)
p1107
sVprotected
p1108
I00
sVdefault_profile
p1109
I00
sVis_translator
p1110
I00
ssVgeo
p1111
NsVin_reply_to_user_id_str
p1112
NsVpossibly_sensitive
p1113
I00
sVlang
p1114
Ven
p1115
sVcreated_at
p1116
VTue Nov 03 15:26:31 +0000 2015
p1117
sVin_reply_to_status_id_str
p1118
NsVplace
p1119
Nsa(dp1120
Vcontributors
p1121
NsVtruncated
p1122
I00
sVtext
p1123
VWe are investigating an issue with the Streaming API endpoints at present.
p1124
sVis_quote_status
p1125
I00
sVin_reply_to_status_id
p1126
NsVid
p1127
I654701476489510912
sVfavorite_count
p1128
I101
sVsource
p1129
V<a href="https://about.twitter.com/products/tweetdeck" rel="nofollow">TweetDeck</a>
p1130
sVretweeted
p1131
I00
sVcoordinates
p1132
NsVentities
p1133
(dp1134
Vsymbols
p1135
(lp1136
sVuser_mentions
p1137
(lp1138
sVhashtags
p1139
(lp1140
sVurls
p1141
(lp1142
ssVin_reply_to_screen_name
p1143
NsVid_str
p1144
V654701476489510912
p1145
sVretweet_count
p1146
I118
sVin_reply_to_user_id
p1147
NsVfavorited
p1148
I00
sVuser
p1149
(dp1150
Vfollow_request_sent
p1151
I00
sVhas_extended_profile
p1152
I00
sVprofile_use_background_image
p1153
I01
sVdefault_profile_image
p1154
I00
sVid
p1155
I6253282
sVprofile_background_image_url_https
p1156
Vhttps://pbs.twimg.com/profile_background_images/656927849/miyt9dpjz77sc0w3d4vj.png
p1157
sVverified
p1158
I01
sVprofile_text_color
p1159
V333333
p1160
sVprofile_image_url_https
p1161
Vhttps://pbs.twimg.com/profile_images/2284174872/7df3h38zabcvjylnyfe3_normal.png
p1162
sVprofile_sidebar_fill_color
p1163
VDDEEF6
p1164
sVentities
p1165
(dp1166
Vurl
p1167
(dp1168
Vurls
p1169
(lp1170
(dp1171
Vurl
p1172
Vhttp://t.co/78pYTvWfJd
p1173
sVindices
p1174
(lp1175
I0
aI22
asVexpanded_url
p1176
Vhttp://dev.twitter.com
p1177
sVdisplay_url
p1178
Vdev.twitter.com
p1179
sassVdescription
p1180
(dp1181
Vurls
p1182
(lp1183
sssVfollowers_count
p1184
I4955527
sVprofile_sidebar_border_color
p1185
VC0DEED
p1186
sVid_str
p1187
V6253282
p1188
sVprofile_background_color
p1189
VC0DEED
p1190
sVlisted_count
p1191
I12999
sVis_translation_enabled
p1192
I00
sVutc_offset
p1193
I-28800
sVstatuses_count
p1194
I3553
sVdescription
p1195
VThe Real Twitter API. I tweet about API changes, service issues and happily answer questions about Twitter and our API. Don't get an answer? It's on my website.
p1196
sVfriends_count
p1197
I48
sVlocation
p1198
VSan Francisco, CA
p1199
sVprofile_link_color
p1200
V0084B4
p1201
sVprofile_image_url
p1202
Vhttp://pbs.twimg.com/profile_images/2284174872/7df3h38zabcvjylnyfe3_normal.png
p1203
sVfollowing
p1204
I00
sVgeo_enabled
p1205
I01
sVprofile_banner_url
p1206
Vhttps://pbs.twimg.com/profile_banners/6253282/1431474710
p1207
sVprofile_background_image_url
p1208
Vhttp://pbs.twimg.com/profile_background_images/656927849/miyt9dpjz77sc0w3d4vj.png
p1209
sVscreen_name
p1210
Vtwitterapi
p1211
sVlang
p1212
Ven
p1213
sVprofile_background_tile
p1214
I01
sVfavourites_count
p1215
I27
sVname
p1216
VTwitter API
p1217
sVnotifications
p1218
I00
sVurl
p1219
Vhttp://t.co/78pYTvWfJd
p1220
sVcreated_at
p1221
VWed May 23 06:01:13 +0000 2007
p1222
sVcontributors_enabled
p1223
I00
sVtime_zone
p1224
VPacific Time (US & Canada)
p1225
sVprotected
p1226
I00
sVdefault_profile
p1227
I00
sVis_translator
p1228
I00
ssVgeo
p1229
NsVin_reply_to_user_id_str
p1230
NsVlang
p1231
Ven
p1232
sVcreated_at
p1233
VThu Oct 15 16:52:50 +0000 2015
p1234
sVin_reply_to_status_id_str
p1235
NsVplace
p1236
Nsa(dp1237
Vcontributors
p1238
NsVtruncated
p1239
I00
sVtext
p1240
VRT @Flight: Registration for Twitter Flight is now open! Join us on October 21 in SF. http://t.co/guK3LqTLN5 http://t.co/59eMxTA3Dx
p1241
sVis_quote_status
p1242
I00
sVin_reply_to_status_id
p1243
NsVid
p1244
I637000859558121472
sVfavorite_count
p1245
I101
sVsource
p1246
V<a href="http://twitter.com" rel="nofollow">Twitter Web Client</a>
p1247
sVretweeted
p1248
I00
sVcoordinates
p1249
NsVentities
p1250
(dp1251
Vsymbols
p1252
(lp1253
sVuser_mentions
p1254
(lp1255
(dp1256
Vid
p1257
I2549012761
sVindices
p1258
(lp1259
I3
aI10
asVid_str
p1260
V2549012761
p1261
sVscreen_name
p1262
VFlight
p1263
sVname
p1264
VTwitter Flight
p1265
sasVhashtags
p1266
(lp1267
sVurls
p1268
(lp1269
(dp1270
Vurl
p1271
Vhttp://t.co/guK3LqTLN5
p1272
sVindices
p1273
(lp1274
I86
aI108
asVexpanded_url
p1275
Vhttp://www.twitterflight.com
p1276
sVdisplay_url
p1277
Vtwitterflight.com
p1278
sasVmedia
p1279
(lp1280
(dp1281
Vsource_user_id
p1282
I2549012761
sVsource_status_id_str
p1283
V637000052741795840
p1284
sVexpanded_url
p1285
Vhttp://twitter.com/Flight/status/637000052741795840/photo/1
p1286
sVdisplay_url
p1287
Vpic.twitter.com/59eMxTA3Dx
p1288
sVurl
p1289
Vhttp://t.co/59eMxTA3Dx
p1290
sVmedia_url_https
p1291
Vhttps://pbs.twimg.com/media/CNcULBpUcAA6L4W.jpg
p1292
sVsource_user_id_str
p1293
V2549012761
p1294
sVsource_status_id
p1295
I637000052741795840
sVid_str
p1296
V637000051949072384
p1297
sVsizes
p1298
(dp1299
Vlarge
p1300
(dp1301
Vh
I473
sVresize
p1302
Vfit
p1303
sVw
I1024
ssVsmall
p1304
(dp1305
Vh
I157
sVresize
p1306
Vfit
p1307
sVw
I340
ssVmedium
p1308
(dp1309
Vh
I277
sVresize
p1310
Vfit
p1311
sVw
I600
ssVthumb
p1312
(dp1313
Vh
I150
sVresize
p1314
Vcrop
p1315
sVw
I150
sssVindices
p1316
(lp1317
I109
aI131
asVtype
p1318
Vphoto
p1319
sVid
p1320
I637000051949072384
sVmedia_url
p1321
Vhttp://pbs.twimg.com/media/CNcULBpUcAA6L4W.jpg
p1322
sassVin_reply_to_screen_name
p1323
NsVid_str
p1324
V637000859558121472
p1325
sVretweet_count
p1326
I64
sVin_reply_to_user_id
p1327
NsVfavorited
p1328
I00
sVuser
p1329
(dp1330
Vfollow_request_sent
p1331
I00
sVhas_extended_profile
p1332
I00
sVprofile_use_background_image
p1333
I01
sVdefault_profile_image
p1334
I00
sVid
p1335
I6253282
sVprofile_background_image_url_https
p1336
Vhttps://pbs.twimg.com/profile_background_images/656927849/miyt9dpjz77sc0w3d4vj.png
p1337
sVverified
p1338
I01
sVprofile_text_color
p1339
V333333
p1340
sVprofile_image_url_https
p1341
Vhttps://pbs.twimg.com/profile_images/2284174872/7df3h38zabcvjylnyfe3_normal.png
p1342
sVprofile_sidebar_fill_color
p1343
VDDEEF6
p1344
sVentities
p1345
(dp1346
Vurl
p1347
(dp1348
Vurls
p1349
(lp1350
(dp1351
Vurl
p1352
Vhttp://t.co/78pYTvWfJd
p1353
sVindices
p1354
(lp1355
I0
aI22
asVexpanded_url
p1356
Vhttp://dev.twitter.com
p1357
sVdisplay_url
p1358
Vdev.twitter.com
p1359
sassVdescription
p1360
(dp1361
Vurls
p1362
(lp1363
sssVfollowers_count
p1364
I4955527
sVprofile_sidebar_border_color
p1365
VC0DEED
p1366
sVid_str
p1367
V6253282
p1368
sVprofile_background_color
p1369
VC0DEED
p1370
sVlisted_count
p1371
I12999
sVis_translation_enabled
p1372
I00
sVutc_offset
p1373
I-28800
sVstatuses_count
p1374
I3553
sVdescription
p1375
VThe Real Twitter API. I tweet about API changes, service issues and happily answer questions about Twitter and our API. Don't get an answer? It's on my website.
p1376
sVfriends_count
p1377
I48
sVlocation
p1378
VSan Francisco, CA
p1379
sVprofile_link_color
p1380
V0084B4
p1381
sVprofile_image_url
p1382
Vhttp://pbs.twimg.com/profile_images/2284174872/7df3h38zabcvjylnyfe3_normal.png
p1383
sVfollowing
p1384
I00
sVgeo_enabled
p1385
I01
sVprofile_banner_url
p1386
Vhttps://pbs.twimg.com/profile_banners/6253282/1431474710
p1387
sVprofile_background_image_url
p1388
Vhttp://pbs.twimg.com/profile_background_images/656927849/miyt9dpjz77sc0w3d4vj.png
p1389
sVscreen_name
p1390
Vtwitterapi
p1391
sVlang
p1392
Ven
p1393
sVprofile_background_tile
p1394
I01
sVfavourites_count
p1395
I27
sVname
p1396
VTwitter API
p1397
sVnotifications
p1398
I00
sVurl
p1399
Vhttp://t.co/78pYTvWfJd
p1400
sVcreated_at
p1401
VWed May 23 06:01:13 +0000 2007
p1402
sVcontributors_enabled
p1403
I00
sVtime_zone
p1404
VPacific Time (US & Canada)
p1405
sVprotected
p1406
I00
sVdefault_profile
p1407
I00
sVis_translator
p1408
I00
ssVgeo
p1409
NsVin_reply_to_user_id_str
p1410
NsVpossibly_sensitive
p1411
I00
sVlang
p1412
Ven
p1413
sVcreated_at
p1414
VThu Aug 27 20:36:54 +0000 2015
p1415
sVin_reply_to_status_id_str
p1416
NsVplace
p1417
NsVextended_entities
p1418
(dp1419
Vmedia
p1420
(lp1421
(dp1422
Vsource_user_id
p1423
I2549012761
sVsource_status_id_str
p1424
V637000052741795840
p1425
sVexpanded_url
p1426
Vhttp://twitter.com/Flight/status/637000052741795840/photo/1
p1427
sVdisplay_url
p1428
Vpic.twitter.com/59eMxTA3Dx
p1429
sVurl
p1430
Vhttp://t.co/59eMxTA3Dx
p1431
sVmedia_url_https
p1432
Vhttps://pbs.twimg.com/media/CNcULBpUcAA6L4W.jpg
p1433
sVsource_user_id_str
p1434
V2549012761
p1435
sVsource_status_id
p1436
I637000052741795840
sVid_str
p1437
V637000051949072384
p1438
sVsizes
p1439
(dp1440
Vlarge
p1441
(dp1442
Vh
I473
sVresize
p1443
Vfit
p1444
sVw
I1024
ssVsmall
p1445
(dp1446
Vh
I157
sVresize
p1447
Vfit
p1448
sVw
I340
ssVmedium
p1449
(dp1450
Vh
I277
sVresize
p1451
Vfit
p1452
sVw
I600
ssVthumb
p1453
(dp1454
Vh
I150
sVresize
p1455
Vcrop
p1456
sVw
I150
sssVindices
p1457
(lp1458
I109
aI131
asVtype
p1459
Vphoto
p1460
sVid
p1461
I637000051949072384
sVmedia_url
p1462
Vhttp://pbs.twimg.com/media/CNcULBpUcAA6L4W.jpg
p1463
sassa(dp1464
Vcontributors
p1465
NsVtruncated
p1466
I00
sVtext
p1467
VWe are aware of a temporary issue with some of our web widgets and embeds repeating on some sites and are investigating.
p1468
sVis_quote_status
p1469
I00
sVin_reply_to_status_id
p1470
NsVid
p1471
I631814296318648320
sVfavorite_count
p1472
I68
sVsource
p1473
V<a href="http://itunes.apple.com/us/app/twitter/id409789998?mt=12" rel="nofollow">Twitter for Mac</a>
p1474
sVretweeted
p1475
I00
sVcoordinates
p1476
NsVentities
p1477
(dp1478
Vsymbols
p1479
(lp1480
sVuser_mentions
p1481
(lp1482
sVhashtags
p1483
(lp1484
sVurls
p1485
(lp1486
ssVin_reply_to_screen_name
p1487
NsVid_str
p1488
V631814296318648320
p1489
sVretweet_count
p1490
I56
sVin_reply_to_user_id
p1491
NsVfavorited
p1492
I00
sVuser
p1493
(dp1494
Vfollow_request_sent
p1495
I00
sVhas_extended_profile
p1496
I00
sVprofile_use_background_image
p1497
I01
sVdefault_profile_image
p1498
I00
sVid
p1499
I6253282
sVprofile_background_image_url_https
p1500
Vhttps://pbs.twimg.com/profile_background_images/656927849/miyt9dpjz77sc0w3d4vj.png
p1501
sVverified
p1502
I01
sVprofile_text_color
p1503
V333333
p1504
sVprofile_image_url_https
p1505
Vhttps://pbs.twimg.com/profile_images/2284174872/7df3h38zabcvjylnyfe3_normal.png
p1506
sVprofile_sidebar_fill_color
p1507
VDDEEF6
p1508
sVentities
p1509
(dp1510
Vurl
p1511
(dp1512
Vurls
p1513
(lp1514
(dp1515
Vurl
p1516
Vhttp://t.co/78pYTvWfJd
p1517
sVindices
p1518
(lp1519
I0
aI22
asVexpanded_url
p1520
Vhttp://dev.twitter.com
p1521
sVdisplay_url
p1522
Vdev.twitter.com
p1523
sassVdescription
p1524
(dp1525
Vurls
p1526
(lp1527
sssVfollowers_count
p1528
I4955527
sVprofile_sidebar_border_color
p1529
VC0DEED
p1530
sVid_str
p1531
V6253282
p1532
sVprofile_background_color
p1533
VC0DEED
p1534
sVlisted_count
p1535
I12999
sVis_translation_enabled
p1536
I00
sVutc_offset
p1537
I-28800
sVstatuses_count
p1538
I3553
sVdescription
p1539
VThe Real Twitter API. I tweet about API changes, service issues and happily answer questions about Twitter and our API. Don't get an answer? It's on my website.
p1540
sVfriends_count
p1541
I48
sVlocation
p1542
VSan Francisco, CA
p1543
sVprofile_link_color
p1544
V0084B4
p1545
sVprofile_image_url
p1546
Vhttp://pbs.twimg.com/profile_images/2284174872/7df3h38zabcvjylnyfe3_normal.png
p1547
sVfollowing
p1548
I00
sVgeo_enabled
p1549
I01
sVprofile_banner_url
p1550
Vhttps://pbs.twimg.com/profile_banners/6253282/1431474710
p1551
sVprofile_background_image_url
p1552
Vhttp://pbs.twimg.com/profile_background_images/656927849/miyt9dpjz77sc0w3d4vj.png
p1553
sVscreen_name
p1554
Vtwitterapi
p1555
sVlang
p1556
Ven
p1557
sVprofile_background_tile
p1558
I01
sVfavourites_count
p1559
I27
sVname
p1560
VTwitter API
p1561
sVnotifications
p1562
I00
sVurl
p1563
Vhttp://t.co/78pYTvWfJd
p1564
sVcreated_at
p1565
VWed May 23 06:01:13 +0000 2007
p1566
sVcontributors_enabled
p1567
I00
sVtime_zone
p1568
VPacific Time (US & Canada)
p1569
sVprotected
p1570
I00
sVdefault_profile
p1571
I00
sVis_translator
p1572
I00
ssVgeo
p1573
NsVin_reply_to_user_id_str
p1574
NsVlang
p1575
Ven
p1576
sVcreated_at
p1577
VThu Aug 13 13:07:21 +0000 2015
p1578
sVin_reply_to_status_id_str
p1579
NsVplace
p1580
Nsa(dp1581
Vcontributors
p1582
NsVtruncated
p1583
I00
sVtext
p1584
VExcited for #io15? We're celebrating by open sourcing Twitter Kit and Digits for #Android! https://t.co/WgN3nwk0F9 http://t.co/r5FkYe7BU6
p1585
sVis_quote_status
p1586
I00
sVin_reply_to_status_id
p1587
NsVid
p1588
I603644958394953729
sVfavorite_count
p1589
I246
sVsource
p1590
V<a href="http://twitter.com" rel="nofollow">Twitter Web Client</a>
p1591
sVretweeted
p1592
I00
sVcoordinates
p1593
NsVentities
p1594
(dp1595
Vsymbols
p1596
(lp1597
sVuser_mentions
p1598
(lp1599
sVhashtags
p1600
(lp1601
(dp1602
Vindices
p1603
(lp1604
I12
aI17
asVtext
p1605
Vio15
p1606
sa(dp1607
Vindices
p1608
(lp1609
I81
aI89
asVtext
p1610
VAndroid
p1611
sasVurls
p1612
(lp1613
(dp1614
Vurl
p1615
Vhttps://t.co/WgN3nwk0F9
p1616
sVindices
p1617
(lp1618
I91
aI114
asVexpanded_url
p1619
Vhttps://blog.twitter.com/2015/open-sourcing-twitter-kit-and-digits-for-android
p1620
sVdisplay_url
p1621
Vblog.twitter.com/2015/open-sour\u2026
p1622
sasVmedia
p1623
(lp1624
(dp1625
Vexpanded_url
p1626
Vhttp://twitter.com/TwitterDev/status/603644958394953729/photo/1
p1627
sVdisplay_url
p1628
Vpic.twitter.com/r5FkYe7BU6
p1629
sVurl
p1630
Vhttp://t.co/r5FkYe7BU6
p1631
sVmedia_url_https
p1632
Vhttps://pbs.twimg.com/media/CGCT4_0VAAApU34.png
p1633
sVid_str
p1634
V603644957480517632
p1635
sVsizes
p1636
(dp1637
Vsmall
p1638
(dp1639
Vh
I168
sVresize
p1640
Vfit
p1641
sVw
I340
ssVlarge
p1642
(dp1643
Vh
I261
sVresize
p1644
Vfit
p1645
sVw
I528
ssVmedium
p1646
(dp1647
Vh
I261
sVresize
p1648
Vfit
p1649
sVw
I528
ssVthumb
p1650
(dp1651
Vh
I150
sVresize
p1652
Vcrop
p1653
sVw
I150
sssVindices
p1654
(lp1655
I115
aI137
asVtype
p1656
Vphoto
p1657
sVid
p1658
I603644957480517632
sVmedia_url
p1659
Vhttp://pbs.twimg.com/media/CGCT4_0VAAApU34.png
p1660
sassVin_reply_to_screen_name
p1661
NsVid_str
p1662
V603644958394953729
p1663
sVretweet_count
p1664
I208
sVin_reply_to_user_id
p1665
NsVfavorited
p1666
I00
sVuser
p1667
(dp1668
Vfollow_request_sent
p1669
I00
sVhas_extended_profile
p1670
I00
sVprofile_use_background_image
p1671
I00
sVdefault_profile_image
p1672
I00
sVid
p1673
I2244994945
sVprofile_background_image_url_https
p1674
Vhttps://abs.twimg.com/images/themes/theme1/bg.png
p1675
sVverified
p1676
I01
sVprofile_text_color
p1677
V333333
p1678
sVprofile_image_url_https
p1679
Vhttps://pbs.twimg.com/profile_images/530814764687949824/npQQVkq8_normal.png
p1680
sVprofile_sidebar_fill_color
p1681
VDDEEF6
p1682
sVentities
p1683
(dp1684
Vurl
p1685
(dp1686
Vurls
p1687
(lp1688
(dp1689
Vurl
p1690
Vhttps://t.co/66w26cua1O
p1691
sVindices
p1692
(lp1693
I0
aI23
asVexpanded_url
p1694
Vhttps://dev.twitter.com/
p1695
sVdisplay_url
p1696
Vdev.twitter.com
p1697
sassVdescription
p1698
(dp1699
Vurls
p1700
(lp1701
sssVfollowers_count
p1702
I295011
sVprofile_sidebar_border_color
p1703
VFFFFFF
p1704
sVid_str
p1705
V2244994945
p1706
sVprofile_background_color
p1707
VFFFFFF
p1708
sVlisted_count
p1709
I698
sVis_translation_enabled
p1710
I00
sVutc_offset
p1711
I-28800
sVstatuses_count
p1712
I1613
sVdescription
p1713
VDeveloper and Platform Relations @Twitter. We are developer advocates. We can't answer all your questions, but we listen to all of them!
p1714
sVfriends_count
p1715
I1495
sVlocation
p1716
VInternet
p1717
sVprofile_link_color
p1718
V0084B4
p1719
sVprofile_image_url
p1720
Vhttp://pbs.twimg.com/profile_images/530814764687949824/npQQVkq8_normal.png
p1721
sVfollowing
p1722
I00
sVgeo_enabled
p1723
I01
sVprofile_banner_url
p1724
Vhttps://pbs.twimg.com/profile_banners/2244994945/1396995246
p1725
sVprofile_background_image_url
p1726
Vhttp://abs.twimg.com/images/themes/theme1/bg.png
p1727
sVscreen_name
p1728
VTwitterDev
p1729
sVlang
p1730
Ven
p1731
sVprofile_background_tile
p1732
I00
sVfavourites_count
p1733
I863
sVname
p1734
VTwitterDev
p1735
sVnotifications
p1736
I00
sVurl
p1737
Vhttps://t.co/66w26cua1O
p1738
sVcreated_at
p1739
VSat Dec 14 04:35:55 +0000 2013
p1740
sVcontributors_enabled
p1741
I00
sVtime_zone
p1742
VPacific Time (US & Canada)
p1743
sVprotected
p1744
I00
sVdefault_profile
p1745
I00
sVis_translator
p1746
I00
ssVgeo
p1747
NsVin_reply_to_user_id_str
p1748
NsVpossibly_sensitive
p1749
I00
sVlang
p1750
Ven
p1751
sVcreated_at
p1752
VWed May 27 19:32:27 +0000 2015
p1753
sVin_reply_to_status_id_str
p1754
NsVplace
p1755
NsVextended_entities
p1756
(dp1757
Vmedia
p1758
(lp1759
(dp1760
Vexpanded_url
p1761
Vhttp://twitter.com/TwitterDev/status/603644958394953729/photo/1
p1762
sVdisplay_url
p1763
Vpic.twitter.com/r5FkYe7BU6
p1764
sVurl
p1765
Vhttp://t.co/r5FkYe7BU6
p1766
sVmedia_url_https
p1767
Vhttps://pbs.twimg.com/media/CGCT4_0VAAApU34.png
p1768
sVid_str
p1769
V603644957480517632
p1770
sVsizes
p1771
(dp1772
Vsmall
p1773
(dp1774
Vh
I168
sVresize
p1775
Vfit
p1776
sVw
I340
ssVlarge
p1777
(dp1778
Vh
I261
sVresize
p1779
Vfit
p1780
sVw
I528
ssVmedium
p1781
(dp1782
Vh
I261
sVresize
p1783
Vfit
p1784
sVw
I528
ssVthumb
p1785
(dp1786
Vh
I150
sVresize
p1787
Vcrop
p1788
sVw
I150
sssVindices
p1789
(lp1790
I115
aI137
asVtype
p1791
Vphoto
p1792
sVid
p1793
I603644957480517632
sVmedia_url
p1794
Vhttp://pbs.twimg.com/media/CGCT4_0VAAApU34.png
p1795
sassa(dp1796
Vcontributors
p1797
NsVtruncated
p1798
I00
sVtext
p1799
VThe temporary widget rendering issue should be resolved https://t.co/233DhE6lOm
p1800
sVis_quote_status
p1801
I01
sVin_reply_to_status_id
p1802
NsVid
p1803
I631826820271337472
sVfavorite_count
p1804
I64
sVentities
p1805
(dp1806
Vsymbols
p1807
(lp1808
sVuser_mentions
p1809
(lp1810
sVhashtags
p1811
(lp1812
sVurls
p1813
(lp1814
(dp1815
Vurl
p1816
Vhttps://t.co/233DhE6lOm
p1817
sVindices
p1818
(lp1819
I56
aI79
asVexpanded_url
p1820
Vhttps://twitter.com/twitterapi/status/631814296318648320
p1821
sVdisplay_url
p1822
Vtwitter.com/twitterapi/sta\u2026
p1823
sassVquoted_status_id
p1824
I631814296318648320
sVretweeted
p1825
I00
sVcoordinates
p1826
NsVquoted_status
p1827
(dp1828
Vcontributors
p1829
NsVtruncated
p1830
I00
sVtext
p1831
VWe are aware of a temporary issue with some of our web widgets and embeds repeating on some sites and are investigating.
p1832
sVis_quote_status
p1833
I00
sVin_reply_to_status_id
p1834
NsVid
p1835
I631814296318648320
sVfavorite_count
p1836
I68
sVsource
p1837
V<a href="http://itunes.apple.com/us/app/twitter/id409789998?mt=12" rel="nofollow">Twitter for Mac</a>
p1838
sVretweeted
p1839
I00
sVcoordinates
p1840
NsVentities
p1841
(dp1842
Vsymbols
p1843
(lp1844
sVuser_mentions
p1845
(lp1846
sVhashtags
p1847
(lp1848
sVurls
p1849
(lp1850
ssVin_reply_to_screen_name
p1851
NsVid_str
p1852
V631814296318648320
p1853
sVretweet_count
p1854
I56
sVin_reply_to_user_id
p1855
NsVfavorited
p1856
I00
sVuser
p1857
(dp1858
Vfollow_request_sent
p1859
I00
sVhas_extended_profile
p1860
I00
sVprofile_use_background_image
p1861
I01
sVdefault_profile_image
p1862
I00
sVid
p1863
I6253282
sVprofile_background_image_url_https
p1864
Vhttps://pbs.twimg.com/profile_background_images/656927849/miyt9dpjz77sc0w3d4vj.png
p1865
sVverified
p1866
I01
sVprofile_text_color
p1867
V333333
p1868
sVprofile_image_url_https
p1869
Vhttps://pbs.twimg.com/profile_images/2284174872/7df3h38zabcvjylnyfe3_normal.png
p1870
sVprofile_sidebar_fill_color
p1871
VDDEEF6
p1872
sVentities
p1873
(dp1874
Vurl
p1875
(dp1876
Vurls
p1877
(lp1878
(dp1879
Vurl
p1880
Vhttp://t.co/78pYTvWfJd
p1881
sVindices
p1882
(lp1883
I0
aI22
asVexpanded_url
p1884
Vhttp://dev.twitter.com
p1885
sVdisplay_url
p1886
Vdev.twitter.com
p1887
sassVdescription
p1888
(dp1889
Vurls
p1890
(lp1891
sssVfollowers_count
p1892
I4955527
sVprofile_sidebar_border_color
p1893
VC0DEED
p1894
sVid_str
p1895
V6253282
p1896
sVprofile_background_color
p1897
VC0DEED
p1898
sVlisted_count
p1899
I12999
sVis_translation_enabled
p1900
I00
sVutc_offset
p1901
I-28800
sVstatuses_count
p1902
I3553
sVdescription
p1903
VThe Real Twitter API. I tweet about API changes, service issues and happily answer questions about Twitter and our API. Don't get an answer? It's on my website.
p1904
sVfriends_count
p1905
I48
sVlocation
p1906
VSan Francisco, CA
p1907
sVprofile_link_color
p1908
V0084B4
p1909
sVprofile_image_url
p1910
Vhttp://pbs.twimg.com/profile_images/2284174872/7df3h38zabcvjylnyfe3_normal.png
p1911
sVfollowing
p1912
I00
sVgeo_enabled
p1913
I01
sVprofile_banner_url
p1914
Vhttps://pbs.twimg.com/profile_banners/6253282/1431474710
p1915
sVprofile_background_image_url
p1916
Vhttp://pbs.twimg.com/profile_background_images/656927849/miyt9dpjz77sc0w3d4vj.png
p1917
sVscreen_name
p1918
Vtwitterapi
p1919
sVlang
p1920
Ven
p1921
sVprofile_background_tile
p1922
I01
sVfavourites_count
p1923
I27
sVname
p1924
VTwitter API
p1925
sVnotifications
p1926
I00
sVurl
p1927
Vhttp://t.co/78pYTvWfJd
p1928
sVcreated_at
p1929
VWed May 23 06:01:13 +0000 2007
p1930
sVcontributors_enabled
p1931
I00
sVtime_zone
p1932
VPacific Time (US & Canada)
p1933
sVprotected
p1934
I00
sVdefault_profile
p1935
I00
sVis_translator
p1936
I00
ssVgeo
p1937
NsVin_reply_to_user_id_str
p1938
NsVlang
p1939
Ven
p1940
sVcreated_at
p1941
VThu Aug 13 13:07:21 +0000 2015
p1942
sVin_reply_to_status_id_str
p1943
NsVplace
p1944
NssVsource
p1945
V<a href="https://about.twitter.com/products/tweetdeck" rel="nofollow">TweetDeck</a>
p1946
sVin_reply_to_screen_name
p1947
NsVid_str
p1948
V631826820271337472
p1949
sVretweet_count
p1950
I46
sVin_reply_to_user_id
p1951
NsVfavorited
p1952
I00
sVuser
p1953
(dp1954
Vfollow_request_sent
p1955
I00
sVhas_extended_profile
p1956
I00
sVprofile_use_background_image
p1957
I01
sVdefault_profile_image
p1958
I00
sVid
p1959
I6253282
sVprofile_background_image_url_https
p1960
Vhttps://pbs.twimg.com/profile_background_images/656927849/miyt9dpjz77sc0w3d4vj.png
p1961
sVverified
p1962
I01
sVprofile_text_color
p1963
V333333
p1964
sVprofile_image_url_https
p1965
Vhttps://pbs.twimg.com/profile_images/2284174872/7df3h38zabcvjylnyfe3_normal.png
p1966
sVprofile_sidebar_fill_color
p1967
VDDEEF6
p1968
sVentities
p1969
(dp1970
Vurl
p1971
(dp1972
Vurls
p1973
(lp1974
(dp1975
Vurl
p1976
Vhttp://t.co/78pYTvWfJd
p1977
sVindices
p1978
(lp1979
I0
aI22
asVexpanded_url
p1980
Vhttp://dev.twitter.com
p1981
sVdisplay_url
p1982
Vdev.twitter.com
p1983
sassVdescription
p1984
(dp1985
Vurls
p1986
(lp1987
sssVfollowers_count
p1988
I4955527
sVprofile_sidebar_border_color
p1989
VC0DEED
p1990
sVid_str
p1991
V6253282
p1992
sVprofile_background_color
p1993
VC0DEED
p1994
sVlisted_count
p1995
I12999
sVis_translation_enabled
p1996
I00
sVutc_offset
p1997
I-28800
sVstatuses_count
p1998
I3553
sVdescription
p1999
VThe Real Twitter API. I tweet about API changes, service issues and happily answer questions about Twitter and our API. Don't get an answer? It's on my website.
p2000
sVfriends_count
p2001
I48
sVlocation
p2002
VSan Francisco, CA
p2003
sVprofile_link_color
p2004
V0084B4
p2005
sVprofile_image_url
p2006
Vhttp://pbs.twimg.com/profile_images/2284174872/7df3h38zabcvjylnyfe3_normal.png
p2007
sVfollowing
p2008
I00
sVgeo_enabled
p2009
I01
sVprofile_banner_url
p2010
Vhttps://pbs.twimg.com/profile_banners/6253282/1431474710
p2011
sVprofile_background_image_url
p2012
Vhttp://pbs.twimg.com/profile_background_images/656927849/miyt9dpjz77sc0w3d4vj.png
p2013
sVscreen_name
p2014
Vtwitterapi
p2015
sVlang
p2016
Ven
p2017
sVprofile_background_tile
p2018
I01
sVfavourites_count
p2019
I27
sVname
p2020
VTwitter API
p2021
sVnotifications
p2022
I00
sVurl
p2023
Vhttp://t.co/78pYTvWfJd
p2024
sVcreated_at
p2025
VWed May 23 06:01:13 +0000 2007
p2026
sVcontributors_enabled
p2027
I00
sVtime_zone
p2028
VPacific Time (US & Canada)
p2029
sVprotected
p2030
I00
sVdefault_profile
p2031
I00
sVis_translator
p2032
I00
ssVgeo
p2033
NsVin_reply_to_user_id_str
p2034
NsVpossibly_sensitive
p2035
I00
sVlang
p2036
Ven
p2037
sVcreated_at
p2038
VThu Aug 13 13:57:07 +0000 2015
p2039
sVquoted_status_id_str
p2040
V631814296318648320
p2041
sVin_reply_to_status_id_str
p2042
NsVplace
p2043
Nsa(dp2044
Vcontributors
p2045
NsVtruncated
p2046
I00
sVtext
p2047
VRemoving the 140 character limit from Direct Messages https://t.co/h0I2M3P2vm
p2048
sVis_quote_status
p2049
I00
sVin_reply_to_status_id
p2050
NsVid
p2051
I610382345024204800
sVfavorite_count
p2052
I249
sVsource
p2053
V<a href="http://itunes.apple.com/us/app/twitter/id409789998?mt=12" rel="nofollow">Twitter for Mac</a>
p2054
sVretweeted
p2055
I00
sVcoordinates
p2056
NsVentities
p2057
(dp2058
Vsymbols
p2059
(lp2060
sVuser_mentions
p2061
(lp2062
sVhashtags
p2063
(lp2064
sVurls
p2065
(lp2066
(dp2067
Vurl
p2068
Vhttps://t.co/h0I2M3P2vm
p2069
sVindices
p2070
(lp2071
I54
aI77
asVexpanded_url
p2072
Vhttps://twittercommunity.com/t/removing-the-140-character-limit-from-direct-messages/41348/
p2073
sVdisplay_url
p2074
Vtwittercommunity.com/t/removing-the\u2026
p2075
sassVin_reply_to_screen_name
p2076
NsVid_str
p2077
V610382345024204800
p2078
sVretweet_count
p2079
I331
sVin_reply_to_user_id
p2080
NsVfavorited
p2081
I00
sVuser
p2082
(dp2083
Vfollow_request_sent
p2084
I00
sVhas_extended_profile
p2085
I00
sVprofile_use_background_image
p2086
I01
sVdefault_profile_image
p2087
I00
sVid
p2088
I6253282
sVprofile_background_image_url_https
p2089
Vhttps://pbs.twimg.com/profile_background_images/656927849/miyt9dpjz77sc0w3d4vj.png
p2090
sVverified
p2091
I01
sVprofile_text_color
p2092
V333333
p2093
sVprofile_image_url_https
p2094
Vhttps://pbs.twimg.com/profile_images/2284174872/7df3h38zabcvjylnyfe3_normal.png
p2095
sVprofile_sidebar_fill_color
p2096
VDDEEF6
p2097
sVentities
p2098
(dp2099
Vurl
p2100
(dp2101
Vurls
p2102
(lp2103
(dp2104
Vurl
p2105
Vhttp://t.co/78pYTvWfJd
p2106
sVindices
p2107
(lp2108
I0
aI22
asVexpanded_url
p2109
Vhttp://dev.twitter.com
p2110
sVdisplay_url
p2111
Vdev.twitter.com
p2112
sassVdescription
p2113
(dp2114
Vurls
p2115
(lp2116
sssVfollowers_count
p2117
I4955527
sVprofile_sidebar_border_color
p2118
VC0DEED
p2119
sVid_str
p2120
V6253282
p2121
sVprofile_background_color
p2122
VC0DEED
p2123
sVlisted_count
p2124
I12999
sVis_translation_enabled
p2125
I00
sVutc_offset
p2126
I-28800
sVstatuses_count
p2127
I3553
sVdescription
p2128
VThe Real Twitter API. I tweet about API changes, service issues and happily answer questions about Twitter and our API. Don't get an answer? It's on my website.
p2129
sVfriends_count
p2130
I48
sVlocation
p2131
VSan Francisco, CA
p2132
sVprofile_link_color
p2133
V0084B4
p2134
sVprofile_image_url
p2135
Vhttp://pbs.twimg.com/profile_images/2284174872/7df3h38zabcvjylnyfe3_normal.png
p2136
sVfollowing
p2137
I00
sVgeo_enabled
p2138
I01
sVprofile_banner_url
p2139
Vhttps://pbs.twimg.com/profile_banners/6253282/1431474710
p2140
sVprofile_background_image_url
p2141
Vhttp://pbs.twimg.com/profile_background_images/656927849/miyt9dpjz77sc0w3d4vj.png
p2142
sVscreen_name
p2143
Vtwitterapi
p2144
sVlang
p2145
Ven
p2146
sVprofile_background_tile
p2147
I01
sVfavourites_count
p2148
I27
sVname
p2149
VTwitter API
p2150
sVnotifications
p2151
I00
sVurl
p2152
Vhttp://t.co/78pYTvWfJd
p2153
sVcreated_at
p2154
VWed May 23 06:01:13 +0000 2007
p2155
sVcontributors_enabled
p2156
I00
sVtime_zone
p2157
VPacific Time (US & Canada)
p2158
sVprotected
p2159
I00
sVdefault_profile
p2160
I00
sVis_translator
p2161
I00
ssVgeo
p2162
NsVin_reply_to_user_id_str
p2163
NsVpossibly_sensitive
p2164
I00
sVlang
p2165
Ven
p2166
sVcreated_at
p2167
VMon Jun 15 09:44:26 +0000 2015
p2168
sVin_reply_to_status_id_str
p2169
NsVplace
p2170
Nsa(dp2171
Vcontributors
p2172
NsVtruncated
p2173
I00
sVtext
p2174
VQuoted status objects and the API https://t.co/PpjnlQEk5F
p2175
sVis_quote_status
p2176
I00
sVin_reply_to_status_id
p2177
NsVid
p2178
I603730552382881792
sVfavorite_count
p2179
I109
sVsource
p2180
V<a href="http://twitter.com" rel="nofollow">Twitter for  iPhone</a>
p2181
sVretweeted
p2182
I00
sVcoordinates
p2183
NsVentities
p2184
(dp2185
Vsymbols
p2186
(lp2187
sVuser_mentions
p2188
(lp2189
sVhashtags
p2190
(lp2191
sVurls
p2192
(lp2193
(dp2194
Vurl
p2195
Vhttps://t.co/PpjnlQEk5F
p2196
sVindices
p2197
(lp2198
I34
aI57
asVexpanded_url
p2199
Vhttps://twittercommunity.com/t/api-payloads-to-include-original-quoted-tweet-objects/
p2200
sVdisplay_url
p2201
Vtwittercommunity.com/t/api-payloads\u2026
p2202
sassVin_reply_to_screen_name
p2203
NsVid_str
p2204
V603730552382881792
p2205
sVretweet_count
p2206
I81
sVin_reply_to_user_id
p2207
NsVfavorited
p2208
I00
sVuser
p2209
(dp2210
Vfollow_request_sent
p2211
I00
sVhas_extended_profile
p2212
I00
sVprofile_use_background_image
p2213
I01
sVdefault_profile_image
p2214
I00
sVid
p2215
I6253282
sVprofile_background_image_url_https
p2216
Vhttps://pbs.twimg.com/profile_background_images/656927849/miyt9dpjz77sc0w3d4vj.png
p2217
sVverified
p2218
I01
sVprofile_text_color
p2219
V333333
p2220
sVprofile_image_url_https
p2221
Vhttps://pbs.twimg.com/profile_images/2284174872/7df3h38zabcvjylnyfe3_normal.png
p2222
sVprofile_sidebar_fill_color
p2223
VDDEEF6
p2224
sVentities
p2225
(dp2226
Vurl
p2227
(dp2228
Vurls
p2229
(lp2230
(dp2231
Vurl
p2232
Vhttp://t.co/78pYTvWfJd
p2233
sVindices
p2234
(lp2235
I0
aI22
asVexpanded_url
p2236
Vhttp://dev.twitter.com
p2237
sVdisplay_url
p2238
Vdev.twitter.com
p2239
sassVdescription
p2240
(dp2241
Vurls
p2242
(lp2243
sssVfollowers_count
p2244
I4955527
sVprofile_sidebar_border_color
p2245
VC0DEED
p2246
sVid_str
p2247
V6253282
p2248
sVprofile_background_color
p2249
VC0DEED
p2250
sVlisted_count
p2251
I12999
sVis_translation_enabled
p2252
I00
sVutc_offset
p2253
I-28800
sVstatuses_count
p2254
I3553
sVdescription
p2255
VThe Real Twitter API. I tweet about API changes, service issues and happily answer questions about Twitter and our API. Don't get an answer? It's on my website.
p2256
sVfriends_count
p2257
I48
sVlocation
p2258
VSan Francisco, CA
p2259
sVprofile_link_color
p2260
V0084B4
p2261
sVprofile_image_url
p2262
Vhttp://pbs.twimg.com/profile_images/2284174872/7df3h38zabcvjylnyfe3_normal.png
p2263
sVfollowing
p2264
I00
sVgeo_enabled
p2265
I01
sVprofile_banner_url
p2266
Vhttps://pbs.twimg.com/profile_banners/6253282/1431474710
p2267
sVprofile_background_image_url
p2268
Vhttp://pbs.twimg.com/profile_background_images/656927849/miyt9dpjz77sc0w3d4vj.png
p2269
sVscreen_name
p2270
Vtwitterapi
p2271
sVlang
p2272
Ven
p2273
sVprofile_background_tile
p2274
I01
sVfavourites_count
p2275
I27
sVname
p2276
VTwitter API
p2277
sVnotifications
p2278
I00
sVurl
p2279
Vhttp://t.co/78pYTvWfJd
p2280
sVcreated_at
p2281
VWed May 23 06:01:13 +0000 2007
p2282
sVcontributors_enabled
p2283
I00
sVtime_zone
p2284
VPacific Time (US & Canada)
p2285
sVprotected
p2286
I00
sVdefault_profile
p2287
I00
sVis_translator
p2288
I00
ssVgeo
p2289
NsVin_reply_to_user_id_str
p2290
NsVpossibly_sensitive
p2291
I00
sVlang
p2292
Ven
p2293
sVcreated_at
p2294
VThu May 28 01:12:35 +0000 2015
p2295
sVin_reply_to_status_id_str
p2296
NsVplace
p2297
Nsa(dp2298
Vcontributors
p2299
NsVtruncated
p2300
I00
sVtext
p2301
VOur developer conference is back! Join us at Twitter @Flight on October 21 in San Francisco: https://t.co/wEiNu8lAt9 http://t.co/N1GZa2VaGL
p2302
sVis_quote_status
p2303
I00
sVin_reply_to_status_id
p2304
NsVid
p2305
I623908048289927168
sVfavorite_count
p2306
I994
sVsource
p2307
V<a href="http://twitter.com" rel="nofollow">Twitter Web Client</a>
p2308
sVretweeted
p2309
I00
sVcoordinates
p2310
NsVentities
p2311
(dp2312
Vsymbols
p2313
(lp2314
sVuser_mentions
p2315
(lp2316
(dp2317
Vid
p2318
I2549012761
sVindices
p2319
(lp2320
I53
aI60
asVid_str
p2321
V2549012761
p2322
sVscreen_name
p2323
VFlight
p2324
sVname
p2325
VTwitter Flight
p2326
sasVhashtags
p2327
(lp2328
sVurls
p2329
(lp2330
(dp2331
Vurl
p2332
Vhttps://t.co/wEiNu8lAt9
p2333
sVindices
p2334
(lp2335
I93
aI116
asVexpanded_url
p2336
Vhttps://blog.twitter.com/2015/join-us-at-twitter-flight-2015
p2337
sVdisplay_url
p2338
Vblog.twitter.com/2015/join-us-a\u2026
p2339
sasVmedia
p2340
(lp2341
(dp2342
Vexpanded_url
p2343
Vhttp://twitter.com/TwitterDev/status/623908048289927168/photo/1
p2344
sVdisplay_url
p2345
Vpic.twitter.com/N1GZa2VaGL
p2346
sVurl
p2347
Vhttp://t.co/N1GZa2VaGL
p2348
sVmedia_url_https
p2349
Vhttps://pbs.twimg.com/media/CKiREGLUAAAYb5f.jpg
p2350
sVid_str
p2351
V623908047954378752
p2352
sVsizes
p2353
(dp2354
Vlarge
p2355
(dp2356
Vh
I268
sVresize
p2357
Vfit
p2358
sVw
I580
ssVsmall
p2359
(dp2360
Vh
I157
sVresize
p2361
Vfit
p2362
sVw
I340
ssVmedium
p2363
(dp2364
Vh
I268
sVresize
p2365
Vfit
p2366
sVw
I580
ssVthumb
p2367
(dp2368
Vh
I150
sVresize
p2369
Vcrop
p2370
sVw
I150
sssVindices
p2371
(lp2372
I117
aI139
asVtype
p2373
Vphoto
p2374
sVid
p2375
I623908047954378752
sVmedia_url
p2376
Vhttp://pbs.twimg.com/media/CKiREGLUAAAYb5f.jpg
p2377
sassVin_reply_to_screen_name
p2378
NsVid_str
p2379
V623908048289927168
p2380
sVretweet_count
p2381
I382
sVin_reply_to_user_id
p2382
NsVfavorited
p2383
I00
sVuser
p2384
(dp2385
Vfollow_request_sent
p2386
I00
sVhas_extended_profile
p2387
I00
sVprofile_use_background_image
p2388
I00
sVdefault_profile_image
p2389
I00
sVid
p2390
I2244994945
sVprofile_background_image_url_https
p2391
Vhttps://abs.twimg.com/images/themes/theme1/bg.png
p2392
sVverified
p2393
I01
sVprofile_text_color
p2394
V333333
p2395
sVprofile_image_url_https
p2396
Vhttps://pbs.twimg.com/profile_images/530814764687949824/npQQVkq8_normal.png
p2397
sVprofile_sidebar_fill_color
p2398
VDDEEF6
p2399
sVentities
p2400
(dp2401
Vurl
p2402
(dp2403
Vurls
p2404
(lp2405
(dp2406
Vurl
p2407
Vhttps://t.co/66w26cua1O
p2408
sVindices
p2409
(lp2410
I0
aI23
asVexpanded_url
p2411
Vhttps://dev.twitter.com/
p2412
sVdisplay_url
p2413
Vdev.twitter.com
p2414
sassVdescription
p2415
(dp2416
Vurls
p2417
(lp2418
sssVfollowers_count
p2419
I295011
sVprofile_sidebar_border_color
p2420
VFFFFFF
p2421
sVid_str
p2422
V2244994945
p2423
sVprofile_background_color
p2424
VFFFFFF
p2425
sVlisted_count
p2426
I698
sVis_translation_enabled
p2427
I00
sVutc_offset
p2428
I-28800
sVstatuses_count
p2429
I1613
sVdescription
p2430
VDeveloper and Platform Relations @Twitter. We are developer advocates. We can't answer all your questions, but we listen to all of them!
p2431
sVfriends_count
p2432
I1495
sVlocation
p2433
VInternet
p2434
sVprofile_link_color
p2435
V0084B4
p2436
sVprofile_image_url
p2437
Vhttp://pbs.twimg.com/profile_images/530814764687949824/npQQVkq8_normal.png
p2438
sVfollowing
p2439
I00
sVgeo_enabled
p2440
I01
sVprofile_banner_url
p2441
Vhttps://pbs.twimg.com/profile_banners/2244994945/1396995246
p2442
sVprofile_background_image_url
p2443
Vhttp://abs.twimg.com/images/themes/theme1/bg.png
p2444
sVscreen_name
p2445
VTwitterDev
p2446
sVlang
p2447
Ven
p2448
sVprofile_background_tile
p2449
I00
sVfavourites_count
p2450
I863
sVname
p2451
VTwitterDev
p2452
sVnotifications
p2453
I00
sVurl
p2454
Vhttps://t.co/66w26cua1O
p2455
sVcreated_at
p2456
VSat Dec 14 04:35:55 +0000 2013
p2457
sVcontributors_enabled
p2458
I00
sVtime_zone
p2459
VPacific Time (US & Canada)
p2460
sVprotected
p2461
I00
sVdefault_profile
p2462
I00
sVis_translator
p2463
I00
ssVgeo
p2464
NsVin_reply_to_user_id_str
p2465
NsVpossibly_sensitive
p2466
I00
sVlang
p2467
Ven
p2468
sVcreated_at
p2469
VWed Jul 22 17:30:45 +0000 2015
p2470
sVin_reply_to_status_id_str
p2471
NsVplace
p2472
NsVextended_entities
p2473
(dp2474
Vmedia
p2475
(lp2476
(dp2477
Vexpanded_url
p2478
Vhttp://twitter.com/TwitterDev/status/623908048289927168/photo/1
p2479
sVdisplay_url
p2480
Vpic.twitter.com/N1GZa2VaGL
p2481
sVurl
p2482
Vhttp://t.co/N1GZa2VaGL
p2483
sVmedia_url_https
p2484
Vhttps://pbs.twimg.com/media/CKiREGLUAAAYb5f.jpg
p2485
sVid_str
p2486
V623908047954378752
p2487
sVsizes
p2488
(dp2489
Vlarge
p2490
(dp2491
Vh
I268
sVresize
p2492
Vfit
p2493
sVw
I580
ssVsmall
p2494
(dp2495
Vh
I157
sVresize
p2496
Vfit
p2497
sVw
I340
ssVmedium
p2498
(dp2499
Vh
I268
sVresize
p2500
Vfit
p2501
sVw
I580
ssVthumb
p2502
(dp2503
Vh
I150
sVresize
p2504
Vcrop
p2505
sVw
I150
sssVindices
p2506
(lp2507
I117
aI139
asVtype
p2508
Vphoto
p2509
sVid
p2510
I623908047954378752
sVmedia_url
p2511
Vhttp://pbs.twimg.com/media/CKiREGLUAAAYb5f.jpg
p2512
sassa(dp2513
Vcontributors
p2514
NsVtruncated
p2515
I00
sVtext
p2516
VUpdate to plans to roll out longer DMs - including how to test in your apps https://t.co/MCq1s51ZaF
p2517
sVis_quote_status
p2518
I00
sVin_reply_to_status_id
p2519
NsVid
p2520
I621413717570400256
sVfavorite_count
p2521
I93
sVsource
p2522
V<a href="http://twitter.com" rel="nofollow">Twitter for  iPhone</a>
p2523
sVretweeted
p2524
I00
sVcoordinates
p2525
NsVentities
p2526
(dp2527
Vsymbols
p2528
(lp2529
sVuser_mentions
p2530
(lp2531
sVhashtags
p2532
(lp2533
sVurls
p2534
(lp2535
(dp2536
Vurl
p2537
Vhttps://t.co/MCq1s51ZaF
p2538
sVindices
p2539
(lp2540
I76
aI99
asVexpanded_url
p2541
Vhttps://twittercommunity.com/t/removing-the-140-character-limit-from-direct-messages/41348
p2542
sVdisplay_url
p2543
Vtwittercommunity.com/t/removing-the\u2026
p2544
sassVin_reply_to_screen_name
p2545
NsVid_str
p2546
V621413717570400256
p2547
sVretweet_count
p2548
I88
sVin_reply_to_user_id
p2549
NsVfavorited
p2550
I00
sVuser
p2551
(dp2552
Vfollow_request_sent
p2553
I00
sVhas_extended_profile
p2554
I00
sVprofile_use_background_image
p2555
I01
sVdefault_profile_image
p2556
I00
sVid
p2557
I6253282
sVprofile_background_image_url_https
p2558
Vhttps://pbs.twimg.com/profile_background_images/656927849/miyt9dpjz77sc0w3d4vj.png
p2559
sVverified
p2560
I01
sVprofile_text_color
p2561
V333333
p2562
sVprofile_image_url_https
p2563
Vhttps://pbs.twimg.com/profile_images/2284174872/7df3h38zabcvjylnyfe3_normal.png
p2564
sVprofile_sidebar_fill_color
p2565
VDDEEF6
p2566
sVentities
p2567
(dp2568
Vurl
p2569
(dp2570
Vurls
p2571
(lp2572
(dp2573
Vurl
p2574
Vhttp://t.co/78pYTvWfJd
p2575
sVindices
p2576
(lp2577
I0
aI22
asVexpanded_url
p2578
Vhttp://dev.twitter.com
p2579
sVdisplay_url
p2580
Vdev.twitter.com
p2581
sassVdescription
p2582
(dp2583
Vurls
p2584
(lp2585
sssVfollowers_count
p2586
I4955527
sVprofile_sidebar_border_color
p2587
VC0DEED
p2588
sVid_str
p2589
V6253282
p2590
sVprofile_background_color
p2591
VC0DEED
p2592
sVlisted_count
p2593
I12999
sVis_translation_enabled
p2594
I00
sVutc_offset
p2595
I-28800
sVstatuses_count
p2596
I3553
sVdescription
p2597
VThe Real Twitter API. I tweet about API changes, service issues and happily answer questions about Twitter and our API. Don't get an answer? It's on my website.
p2598
sVfriends_count
p2599
I48
sVlocation
p2600
VSan Francisco, CA
p2601
sVprofile_link_color
p2602
V0084B4
p2603
sVprofile_image_url
p2604
Vhttp://pbs.twimg.com/profile_images/2284174872/7df3h38zabcvjylnyfe3_normal.png
p2605
sVfollowing
p2606
I00
sVgeo_enabled
p2607
I01
sVprofile_banner_url
p2608
Vhttps://pbs.twimg.com/profile_banners/6253282/1431474710
p2609
sVprofile_background_image_url
p2610
Vhttp://pbs.twimg.com/profile_background_images/656927849/miyt9dpjz77sc0w3d4vj.png
p2611
sVscreen_name
p2612
Vtwitterapi
p2613
sVlang
p2614
Ven
p2615
sVprofile_background_tile
p2616
I01
sVfavourites_count
p2617
I27
sVname
p2618
VTwitter API
p2619
sVnotifications
p2620
I00
sVurl
p2621
Vhttp://t.co/78pYTvWfJd
p2622
sVcreated_at
p2623
VWed May 23 06:01:13 +0000 2007
p2624
sVcontributors_enabled
p2625
I00
sVtime_zone
p2626
VPacific Time (US & Canada)
p2627
sVprotected
p2628
I00
sVdefault_profile
p2629
I00
sVis_translator
p2630
I00
ssVgeo
p2631
NsVin_reply_to_user_id_str
p2632
NsVpossibly_sensitive
p2633
I00
sVlang
p2634
Ven
p2635
sVcreated_at
p2636
VWed Jul 15 20:19:10 +0000 2015
p2637
sVin_reply_to_status_id_str
p2638
NsVplace
p2639
Nsa.